; Function Attrs: nounwind uwtable
define internal ptr @_io_FileIO_writable(ptr noundef readonly captures(none) %0, ptr readnone captures(none) %1) #1 {
  %3 = getelementptr inbounds nuw i8, ptr %0, i64 16
  %4 = load i32, ptr %3, align 8, !tbaa !4
  %5 = icmp slt i32 %4, 0
  br i1 %5, label %6, label %8

6:                                                ; preds = %2
  %7 = load ptr, ptr @PyExc_ValueError, align 8, !tbaa !21
  tail call void @PyErr_SetString(ptr noundef %7, ptr noundef nonnull @.str.35) #10
  br label %_io_FileIO_writable_impl.exit

8:                                                ; preds = %2
  %9 = getelementptr inbounds nuw i8, ptr %0, i64 20
  %10 = load i8, ptr %9, align 4
  %11 = lshr i8 %10, 2
  %12 = and i8 %11, 1
  %13 = zext nneg i8 %12 to i64
  %14 = tail call ptr @PyBool_FromLong(i64 noundef %13) #10
  br label %_io_FileIO_writable_impl.exit

_io_FileIO_writable_impl.exit:                    ; preds = %6, %8
  %.0.i = phi ptr [ null, %6 ], [ %14, %8 ]
  ret ptr %.0.i
}